target datalayout = "e-m:e-p270:32:32-p271:32:32-p272:64:64-i64:64-i128:128-f80:128-n8:16:32:64-S128"
target triple = "x86_64-pc-linux-gnu"

%"class.google::protobuf::io::CodedInputStream" = type { ptr, ptr, ptr, i32, i32, i32, i8, i8, i32, i32, i32, i32, i32, ptr, ptr }

; Function Attrs: inlinehint mustprogress nounwind uwtable
define linkonce_odr noundef nonnull align 4 dereferenceable(4) ptr @_ZSt3minIiERKT_S2_S2_(ptr noundef nonnull align 4 dereferenceable(4) %0, ptr noundef nonnull align 4 dereferenceable(4) %1) #8 comdat {
  %3 = alloca ptr, align 8
  %4 = alloca ptr, align 8
  %5 = alloca ptr, align 8
  store ptr %0, ptr %4, align 8, !tbaa !27
  store ptr %1, ptr %5, align 8, !tbaa !27
  %6 = load ptr, ptr %5, align 8, !tbaa !27
  %7 = load i32, ptr %6, align 4, !tbaa !18
  %8 = load ptr, ptr %4, align 8, !tbaa !27
  %9 = load i32, ptr %8, align 4, !tbaa !18
  %10 = icmp slt i32 %7, %9
  br i1 %10, label %11, label %13

11:                                               ; preds = %2
  %12 = load ptr, ptr %5, align 8, !tbaa !27
  store ptr %12, ptr %3, align 8
  br label %15

13:                                               ; preds = %2
  %14 = load ptr, ptr %4, align 8, !tbaa !27
  store ptr %14, ptr %3, align 8
  br label %15

15:                                               ; preds = %13, %11
  %16 = load ptr, ptr %3, align 8
  ret ptr %16
}

; Function Attrs: inlinehint mustprogress uwtable
define linkonce_odr void @_ZN6google8protobuf2io16CodedInputStream21RecomputeBufferLimitsEv(ptr noundef nonnull align 8 dereferenceable(80) %0) #10 comdat align 2 {
  %2 = alloca ptr, align 8
  %3 = alloca i32, align 4
  store ptr %0, ptr %2, align 8, !tbaa !3
  %4 = load ptr, ptr %2, align 8
  %5 = getelementptr inbounds nuw %"class.google::protobuf::io::CodedInputStream", ptr %4, i32 0, i32 9
  %6 = load i32, ptr %5, align 4, !tbaa !16
  %7 = getelementptr inbounds nuw %"class.google::protobuf::io::CodedInputStream", ptr %4, i32 0, i32 1
  %8 = load ptr, ptr %7, align 8, !tbaa !23
  %9 = sext i32 %6 to i64
  %10 = getelementptr inbounds i8, ptr %8, i64 %9
  store ptr %10, ptr %7, align 8, !tbaa !23
  call void @llvm.lifetime.start.p0(i64 4, ptr %3) #3
  %11 = getelementptr inbounds nuw %"class.google::protobuf::io::CodedInputStream", ptr %4, i32 0, i32 8
  %12 = getelementptr inbounds nuw %"class.google::protobuf::io::CodedInputStream", ptr %4, i32 0, i32 10
  %13 = call noundef nonnull align 4 dereferenceable(4) ptr @_ZSt3minIiERKT_S2_S2_(ptr noundef nonnull align 4 dereferenceable(4) %11, ptr noundef nonnull align 4 dereferenceable(4) %12)
  %14 = load i32, ptr %13, align 4, !tbaa !18
  store i32 %14, ptr %3, align 4, !tbaa !18
  %15 = load i32, ptr %3, align 4, !tbaa !18
  %16 = getelementptr inbounds nuw %"class.google::protobuf::io::CodedInputStream", ptr %4, i32 0, i32 3
  %17 = load i32, ptr %16, align 8, !tbaa !21
  %18 = icmp slt i32 %15, %17
  br i1 %18, label %19, label %32

19:                                               ; preds = %1
  %20 = getelementptr inbounds nuw %"class.google::protobuf::io::CodedInputStream", ptr %4, i32 0, i32 3
  %21 = load i32, ptr %20, align 8, !tbaa !21
  %22 = load i32, ptr %3, align 4, !tbaa !18
  %23 = sub nsw i32 %21, %22
  %24 = getelementptr inbounds nuw %"class.google::protobuf::io::CodedInputStream", ptr %4, i32 0, i32 9
  store i32 %23, ptr %24, align 4, !tbaa !16
  %25 = getelementptr inbounds nuw %"class.google::protobuf::io::CodedInputStream", ptr %4, i32 0, i32 9
  %26 = load i32, ptr %25, align 4, !tbaa !16
  %27 = getelementptr inbounds nuw %"class.google::protobuf::io::CodedInputStream", ptr %4, i32 0, i32 1
  %28 = load ptr, ptr %27, align 8, !tbaa !23
  %29 = sext i32 %26 to i64
  %30 = sub i64 0, %29
  %31 = getelementptr inbounds i8, ptr %28, i64 %30
  store ptr %31, ptr %27, align 8, !tbaa !23
  br label %34

32:                                               ; preds = %1
  %33 = getelementptr inbounds nuw %"class.google::protobuf::io::CodedInputStream", ptr %4, i32 0, i32 9
  store i32 0, ptr %33, align 4, !tbaa !16
  br label %34

34:                                               ; preds = %32, %19
  call void @llvm.lifetime.end.p0(i64 4, ptr %3) #3
  ret void
}

; Function Attrs: mustprogress uwtable
define void @_ZN6google8protobuf2io16CodedInputStream8PopLimitEi(ptr noundef nonnull align 8 dereferenceable(80) %0, i32 noundef %1) #5 align 2 {
  %3 = alloca ptr, align 8
  %4 = alloca i32, align 4
  store ptr %0, ptr %3, align 8, !tbaa !3
  store i32 %1, ptr %4, align 4, !tbaa !18
  %5 = load ptr, ptr %3, align 8
  %6 = load i32, ptr %4, align 4, !tbaa !18
  %7 = getelementptr inbounds nuw %"class.google::protobuf::io::CodedInputStream", ptr %5, i32 0, i32 8
  store i32 %6, ptr %7, align 8, !tbaa !24
  call void @_ZN6google8protobuf2io16CodedInputStream21RecomputeBufferLimitsEv(ptr noundef nonnull align 8 dereferenceable(80) %5)
  %8 = getelementptr inbounds nuw %"class.google::protobuf::io::CodedInputStream", ptr %5, i32 0, i32 6
  store i8 0, ptr %8, align 4, !tbaa !25
  ret void
}

; Function Attrs: inlinehint mustprogress nounwind uwtable
define linkonce_odr noundef zeroext i1 @_ZN6google8protobuf2io16CodedInputStream21ConsumedEntireMessageEv(ptr noundef nonnull align 8 dereferenceable(80) %0) #8 comdat align 2 {
  %2 = alloca ptr, align 8
  store ptr %0, ptr %2, align 8, !tbaa !3
  %3 = load ptr, ptr %2, align 8
  %4 = getelementptr inbounds nuw %"class.google::protobuf::io::CodedInputStream", ptr %3, i32 0, i32 6
  %5 = load i8, ptr %4, align 4, !tbaa !25, !range !36, !noundef !37
  %6 = trunc i8 %5 to i1
  ret i1 %6
}

; Function Attrs: mustprogress uwtable
define noundef zeroext i1 @_ZN6google8protobuf2io16CodedInputStream37CheckEntireMessageConsumedAndPopLimitEi(ptr noundef nonnull align 8 dereferenceable(80) %0, i32 noundef %1) #5 align 2 {
  %3 = alloca ptr, align 8
  %4 = alloca i32, align 4
  %5 = alloca i8, align 1
  store ptr %0, ptr %3, align 8, !tbaa !3
  store i32 %1, ptr %4, align 4, !tbaa !18
  %6 = load ptr, ptr %3, align 8
  call void @llvm.lifetime.start.p0(i64 1, ptr %5) #3
  %7 = call noundef zeroext i1 @_ZN6google8protobuf2io16CodedInputStream21ConsumedEntireMessageEv(ptr noundef nonnull align 8 dereferenceable(80) %6)
  %8 = zext i1 %7 to i8
  store i8 %8, ptr %5, align 1, !tbaa !32
  %9 = load i32, ptr %4, align 4, !tbaa !18
  call void @_ZN6google8protobuf2io16CodedInputStream8PopLimitEi(ptr noundef nonnull align 8 dereferenceable(80) %6, i32 noundef %9)
  %10 = load i8, ptr %5, align 1, !tbaa !32, !range !36, !noundef !37
  %11 = trunc i8 %10 to i1
  call void @llvm.lifetime.end.p0(i64 1, ptr %5) #3
  ret i1 %11
}